target datalayout = "e-m:e-p270:32:32-p271:32:32-p272:64:64-i64:64-i128:128-f80:128-n8:16:32:64-S128"
target triple = "x86_64-pc-linux-gnu"

%struct.RedisModuleCtx = type { ptr, ptr, ptr, ptr, ptr, i32, i32, i32, ptr, i32, ptr, ptr, ptr, ptr, i64, ptr }
%struct.client = type { i64, i64, ptr, i8, i8, i8, i8, i32, ptr, ptr, ptr, ptr, ptr, i64, i64, i32, ptr, i32, i32, ptr, i64, ptr, ptr, ptr, ptr, ptr, i32, i32, i64, ptr, i64, ptr, i64, i64, i64, i32, ptr, i64, i64, i32, i32, i32, i32, i64, i64, ptr, i64, i64, i64, i64, i64, i64, i64, i64, [41 x i8], i32, ptr, i32, i32, i64, %struct.multiState, %struct.blockingState, i64, ptr, ptr, ptr, ptr, ptr, ptr, ptr, ptr, ptr, ptr, ptr, ptr, ptr, ptr, i64, ptr, i64, i32, ptr, ptr, ptr, i64, %struct.listNode, i64, i64, i32, i64, ptr }
%struct.multiState = type { ptr, i32, i32, i32, i64, i32 }
%struct.blockingState = type { i32, i64, i32, ptr, i32, i32, i64, ptr, ptr, i64 }
%struct.listNode = type { ptr, ptr, ptr }
%struct.RedisModuleKey = type { ptr, ptr, ptr, ptr, ptr, i32, %union.anon }
%union.anon = type { %struct.anon }
%struct.anon = type { %struct.listTypeEntry, i64 }
%struct.listTypeEntry = type { ptr, ptr, %struct.quicklistEntry }
%struct.quicklistEntry = type { ptr, ptr, ptr, ptr, i64, i64, i32 }
%struct.anon.1 = type { %struct.streamID, i64, i32 }
%struct.streamID = type { i64, i64 }
%struct.AutoMemEntry = type { ptr, i32 }
%struct.anon.0 = type { i32, %struct.zrangespec, %struct.zlexrangespec, i32, i32, ptr, i32 }
%struct.zrangespec = type { double, double, i32, i32 }
%struct.zlexrangespec = type { ptr, ptr, i32, i32 }

; Function Attrs: nounwind uwtable
define internal void @zsetKeyReset(ptr noundef %0) #0 {
  %2 = alloca ptr, align 8
  store ptr %0, ptr %2, align 8, !tbaa !64
  %3 = load ptr, ptr %2, align 8, !tbaa !64
  %4 = getelementptr inbounds nuw %struct.RedisModuleKey, ptr %3, i32 0, i32 6
  %5 = getelementptr inbounds nuw %struct.anon.0, ptr %4, i32 0, i32 0
  store i32 0, ptr %5, align 8, !tbaa !72
  %6 = load ptr, ptr %2, align 8, !tbaa !64
  %7 = getelementptr inbounds nuw %struct.RedisModuleKey, ptr %6, i32 0, i32 6
  %8 = getelementptr inbounds nuw %struct.anon.0, ptr %7, i32 0, i32 5
  store ptr null, ptr %8, align 8, !tbaa !72
  %9 = load ptr, ptr %2, align 8, !tbaa !64
  %10 = getelementptr inbounds nuw %struct.RedisModuleKey, ptr %9, i32 0, i32 6
  %11 = getelementptr inbounds nuw %struct.anon.0, ptr %10, i32 0, i32 6
  store i32 1, ptr %11, align 8, !tbaa !72
  ret void
}

; Function Attrs: nounwind uwtable
define internal void @moduleInitKeyTypeSpecific(ptr noundef %0) #0 {
  %2 = alloca ptr, align 8
  store ptr %0, ptr %2, align 8, !tbaa !64
  %3 = load ptr, ptr %2, align 8, !tbaa !64
  %4 = getelementptr inbounds nuw %struct.RedisModuleKey, ptr %3, i32 0, i32 3
  %5 = load ptr, ptr %4, align 8, !tbaa !68
  %6 = load i32, ptr %5, align 8
  %7 = and i32 %6, 15
  switch i32 %7, label %14 [
    i32 3, label %8
    i32 6, label %10
  ]

8:                                                ; preds = %1
  %9 = load ptr, ptr %2, align 8, !tbaa !64
  call void @zsetKeyReset(ptr noundef %9)
  br label %14

10:                                               ; preds = %1
  %11 = load ptr, ptr %2, align 8, !tbaa !64
  %12 = getelementptr inbounds nuw %struct.RedisModuleKey, ptr %11, i32 0, i32 6
  %13 = getelementptr inbounds nuw %struct.anon.1, ptr %12, i32 0, i32 2
  store i32 0, ptr %13, align 8, !tbaa !72
  br label %14

14:                                               ; preds = %1, %10, %8
  ret void
}

; Function Attrs: nounwind uwtable
define dso_local void @autoMemoryAdd(ptr noundef %0, i32 noundef %1, ptr noundef %2) #0 {
  %4 = alloca ptr, align 8
  %5 = alloca i32, align 4
  %6 = alloca ptr, align 8
  store ptr %0, ptr %4, align 8, !tbaa !13
  store i32 %1, ptr %5, align 4, !tbaa !29
  store ptr %2, ptr %6, align 8, !tbaa !9
  %7 = load ptr, ptr %4, align 8, !tbaa !13
  %8 = getelementptr inbounds nuw %struct.RedisModuleCtx, ptr %7, i32 0, i32 7
  %9 = load i32, ptr %8, align 8, !tbaa !98
  %10 = and i32 %9, 1
  %11 = icmp ne i32 %10, 0
  br i1 %11, label %13, label %12

12:                                               ; preds = %3
  br label %70

13:                                               ; preds = %3
  %14 = load ptr, ptr %4, align 8, !tbaa !13
  %15 = getelementptr inbounds nuw %struct.RedisModuleCtx, ptr %14, i32 0, i32 6
  %16 = load i32, ptr %15, align 4, !tbaa !107
  %17 = load ptr, ptr %4, align 8, !tbaa !13
  %18 = getelementptr inbounds nuw %struct.RedisModuleCtx, ptr %17, i32 0, i32 5
  %19 = load i32, ptr %18, align 8, !tbaa !113
  %20 = icmp eq i32 %16, %19
  br i1 %20, label %21, label %45

21:                                               ; preds = %13
  %22 = load ptr, ptr %4, align 8, !tbaa !13
  %23 = getelementptr inbounds nuw %struct.RedisModuleCtx, ptr %22, i32 0, i32 5
  %24 = load i32, ptr %23, align 8, !tbaa !113
  %25 = mul nsw i32 %24, 2
  store i32 %25, ptr %23, align 8, !tbaa !113
  %26 = load ptr, ptr %4, align 8, !tbaa !13
  %27 = getelementptr inbounds nuw %struct.RedisModuleCtx, ptr %26, i32 0, i32 5
  %28 = load i32, ptr %27, align 8, !tbaa !113
  %29 = icmp slt i32 %28, 16
  br i1 %29, label %30, label %33

30:                                               ; preds = %21
  %31 = load ptr, ptr %4, align 8, !tbaa !13
  %32 = getelementptr inbounds nuw %struct.RedisModuleCtx, ptr %31, i32 0, i32 5
  store i32 16, ptr %32, align 8, !tbaa !113
  br label %33

33:                                               ; preds = %30, %21
  %34 = load ptr, ptr %4, align 8, !tbaa !13
  %35 = getelementptr inbounds nuw %struct.RedisModuleCtx, ptr %34, i32 0, i32 4
  %36 = load ptr, ptr %35, align 8, !tbaa !108
  %37 = load ptr, ptr %4, align 8, !tbaa !13
  %38 = getelementptr inbounds nuw %struct.RedisModuleCtx, ptr %37, i32 0, i32 5
  %39 = load i32, ptr %38, align 8, !tbaa !113
  %40 = sext i32 %39 to i64
  %41 = mul i64 16, %40
  %42 = call ptr @zrealloc(ptr noundef %36, i64 noundef %41) #17
  %43 = load ptr, ptr %4, align 8, !tbaa !13
  %44 = getelementptr inbounds nuw %struct.RedisModuleCtx, ptr %43, i32 0, i32 4
  store ptr %42, ptr %44, align 8, !tbaa !108
  br label %45

45:                                               ; preds = %33, %13
  %46 = load i32, ptr %5, align 4, !tbaa !29
  %47 = load ptr, ptr %4, align 8, !tbaa !13
  %48 = getelementptr inbounds nuw %struct.RedisModuleCtx, ptr %47, i32 0, i32 4
  %49 = load ptr, ptr %48, align 8, !tbaa !108
  %50 = load ptr, ptr %4, align 8, !tbaa !13
  %51 = getelementptr inbounds nuw %struct.RedisModuleCtx, ptr %50, i32 0, i32 6
  %52 = load i32, ptr %51, align 4, !tbaa !107
  %53 = sext i32 %52 to i64
  %54 = getelementptr inbounds %struct.AutoMemEntry, ptr %49, i64 %53
  %55 = getelementptr inbounds nuw %struct.AutoMemEntry, ptr %54, i32 0, i32 1
  store i32 %46, ptr %55, align 8, !tbaa !111
  %56 = load ptr, ptr %6, align 8, !tbaa !9
  %57 = load ptr, ptr %4, align 8, !tbaa !13
  %58 = getelementptr inbounds nuw %struct.RedisModuleCtx, ptr %57, i32 0, i32 4
  %59 = load ptr, ptr %58, align 8, !tbaa !108
  %60 = load ptr, ptr %4, align 8, !tbaa !13
  %61 = getelementptr inbounds nuw %struct.RedisModuleCtx, ptr %60, i32 0, i32 6
  %62 = load i32, ptr %61, align 4, !tbaa !107
  %63 = sext i32 %62 to i64
  %64 = getelementptr inbounds %struct.AutoMemEntry, ptr %59, i64 %63
  %65 = getelementptr inbounds nuw %struct.AutoMemEntry, ptr %64, i32 0, i32 0
  store ptr %56, ptr %65, align 8, !tbaa !109
  %66 = load ptr, ptr %4, align 8, !tbaa !13
  %67 = getelementptr inbounds nuw %struct.RedisModuleCtx, ptr %66, i32 0, i32 6
  %68 = load i32, ptr %67, align 4, !tbaa !107
  %69 = add nsw i32 %68, 1
  store i32 %69, ptr %67, align 4, !tbaa !107
  br label %70

70:                                               ; preds = %45, %12
  ret void
}

; Function Attrs: nounwind uwtable
define internal void @moduleInitKey(ptr noundef %0, ptr noundef %1, ptr noundef %2, ptr noundef %3, i32 noundef %4) #0 {
  %6 = alloca ptr, align 8
  %7 = alloca ptr, align 8
  %8 = alloca ptr, align 8
  %9 = alloca ptr, align 8
  %10 = alloca i32, align 4
  store ptr %0, ptr %6, align 8, !tbaa !64
  store ptr %1, ptr %7, align 8, !tbaa !13
  store ptr %2, ptr %8, align 8, !tbaa !69
  store ptr %3, ptr %9, align 8, !tbaa !69
  store i32 %4, ptr %10, align 4, !tbaa !29
  %11 = load ptr, ptr %7, align 8, !tbaa !13
  %12 = load ptr, ptr %6, align 8, !tbaa !64
  %13 = getelementptr inbounds nuw %struct.RedisModuleKey, ptr %12, i32 0, i32 0
  store ptr %11, ptr %13, align 8, !tbaa !293
  %14 = load ptr, ptr %7, align 8, !tbaa !13
  %15 = getelementptr inbounds nuw %struct.RedisModuleCtx, ptr %14, i32 0, i32 2
  %16 = load ptr, ptr %15, align 8, !tbaa !106
  %17 = getelementptr inbounds nuw %struct.client, ptr %16, i32 0, i32 8
  %18 = load ptr, ptr %17, align 8, !tbaa !117
  %19 = load ptr, ptr %6, align 8, !tbaa !64
  %20 = getelementptr inbounds nuw %struct.RedisModuleKey, ptr %19, i32 0, i32 1
  store ptr %18, ptr %20, align 8, !tbaa !70
  %21 = load ptr, ptr %8, align 8, !tbaa !69
  %22 = load ptr, ptr %6, align 8, !tbaa !64
  %23 = getelementptr inbounds nuw %struct.RedisModuleKey, ptr %22, i32 0, i32 2
  store ptr %21, ptr %23, align 8, !tbaa !71
  %24 = load ptr, ptr %8, align 8, !tbaa !69
  call void @incrRefCount(ptr noundef %24)
  %25 = load ptr, ptr %9, align 8, !tbaa !69
  %26 = load ptr, ptr %6, align 8, !tbaa !64
  %27 = getelementptr inbounds nuw %struct.RedisModuleKey, ptr %26, i32 0, i32 3
  store ptr %25, ptr %27, align 8, !tbaa !68
  %28 = load ptr, ptr %6, align 8, !tbaa !64
  %29 = getelementptr inbounds nuw %struct.RedisModuleKey, ptr %28, i32 0, i32 4
  store ptr null, ptr %29, align 8, !tbaa !73
  %30 = load i32, ptr %10, align 4, !tbaa !29
  %31 = load ptr, ptr %6, align 8, !tbaa !64
  %32 = getelementptr inbounds nuw %struct.RedisModuleKey, ptr %31, i32 0, i32 5
  store i32 %30, ptr %32, align 8, !tbaa !66
  %33 = load ptr, ptr %6, align 8, !tbaa !64
  %34 = getelementptr inbounds nuw %struct.RedisModuleKey, ptr %33, i32 0, i32 3
  %35 = load ptr, ptr %34, align 8, !tbaa !68
  %36 = icmp ne ptr %35, null
  br i1 %36, label %37, label %39

37:                                               ; preds = %5
  %38 = load ptr, ptr %6, align 8, !tbaa !64
  call void @moduleInitKeyTypeSpecific(ptr noundef %38)
  br label %39

39:                                               ; preds = %37, %5
  ret void
}

; Function Attrs: nounwind uwtable
define dso_local ptr @RM_OpenKey(ptr noundef %0, ptr noundef %1, i32 noundef %2) #0 {
  %4 = alloca ptr, align 8
  %5 = alloca ptr, align 8
  %6 = alloca ptr, align 8
  %7 = alloca i32, align 4
  %8 = alloca ptr, align 8
  %9 = alloca ptr, align 8
  %10 = alloca i32, align 4
  %11 = alloca i32, align 4
  store ptr %0, ptr %5, align 8, !tbaa !13
  store ptr %1, ptr %6, align 8, !tbaa !69
  store i32 %2, ptr %7, align 4, !tbaa !29
  call void @llvm.lifetime.start.p0(i64 8, ptr %8) #15
  call void @llvm.lifetime.start.p0(i64 8, ptr %9) #15
  call void @llvm.lifetime.start.p0(i64 4, ptr %10) #15
  store i32 0, ptr %10, align 4, !tbaa !29
  %12 = load i32, ptr %7, align 4, !tbaa !29
  %13 = and i32 %12, 65536
  %14 = icmp ne i32 %13, 0
  %15 = select i1 %14, i32 1, i32 0
  %16 = load i32, ptr %10, align 4, !tbaa !29
  %17 = or i32 %16, %15
  store i32 %17, ptr %10, align 4, !tbaa !29
  %18 = load i32, ptr %7, align 4, !tbaa !29
  %19 = and i32 %18, 131072
  %20 = icmp ne i32 %19, 0
  %21 = select i1 %20, i32 2, i32 0
  %22 = load i32, ptr %10, align 4, !tbaa !29
  %23 = or i32 %22, %21
  store i32 %23, ptr %10, align 4, !tbaa !29
  %24 = load i32, ptr %7, align 4, !tbaa !29
  %25 = and i32 %24, 262144
  %26 = icmp ne i32 %25, 0
  %27 = select i1 %26, i32 4, i32 0
  %28 = load i32, ptr %10, align 4, !tbaa !29
  %29 = or i32 %28, %27
  store i32 %29, ptr %10, align 4, !tbaa !29
  %30 = load i32, ptr %7, align 4, !tbaa !29
  %31 = and i32 %30, 524288
  %32 = icmp ne i32 %31, 0
  %33 = select i1 %32, i32 16, i32 0
  %34 = load i32, ptr %10, align 4, !tbaa !29
  %35 = or i32 %34, %33
  store i32 %35, ptr %10, align 4, !tbaa !29
  %36 = load i32, ptr %7, align 4, !tbaa !29
  %37 = and i32 %36, 1048576
  %38 = icmp ne i32 %37, 0
  %39 = select i1 %38, i32 23, i32 0
  %40 = load i32, ptr %10, align 4, !tbaa !29
  %41 = or i32 %40, %39
  store i32 %41, ptr %10, align 4, !tbaa !29
  %42 = load i32, ptr %7, align 4, !tbaa !29
  %43 = and i32 %42, 2097152
  %44 = icmp ne i32 %43, 0
  %45 = select i1 %44, i32 32, i32 0
  %46 = load i32, ptr %10, align 4, !tbaa !29
  %47 = or i32 %46, %45
  store i32 %47, ptr %10, align 4, !tbaa !29
  %48 = load i32, ptr %7, align 4, !tbaa !29
  %49 = and i32 %48, 2
  %50 = icmp ne i32 %49, 0
  br i1 %50, label %51, label %60

51:                                               ; preds = %3
  %52 = load ptr, ptr %5, align 8, !tbaa !13
  %53 = getelementptr inbounds nuw %struct.RedisModuleCtx, ptr %52, i32 0, i32 2
  %54 = load ptr, ptr %53, align 8, !tbaa !106
  %55 = getelementptr inbounds nuw %struct.client, ptr %54, i32 0, i32 8
  %56 = load ptr, ptr %55, align 8, !tbaa !117
  %57 = load ptr, ptr %6, align 8, !tbaa !69
  %58 = load i32, ptr %10, align 4, !tbaa !29
  %59 = call ptr @lookupKeyWriteWithFlags(ptr noundef %56, ptr noundef %57, i32 noundef %58)
  store ptr %59, ptr %9, align 8, !tbaa !69
  br label %73

60:                                               ; preds = %3
  %61 = load ptr, ptr %5, align 8, !tbaa !13
  %62 = getelementptr inbounds nuw %struct.RedisModuleCtx, ptr %61, i32 0, i32 2
  %63 = load ptr, ptr %62, align 8, !tbaa !106
  %64 = getelementptr inbounds nuw %struct.client, ptr %63, i32 0, i32 8
  %65 = load ptr, ptr %64, align 8, !tbaa !117
  %66 = load ptr, ptr %6, align 8, !tbaa !69
  %67 = load i32, ptr %10, align 4, !tbaa !29
  %68 = call ptr @lookupKeyReadWithFlags(ptr noundef %65, ptr noundef %66, i32 noundef %67)
  store ptr %68, ptr %9, align 8, !tbaa !69
  %69 = load ptr, ptr %9, align 8, !tbaa !69
  %70 = icmp eq ptr %69, null
  br i1 %70, label %71, label %72

71:                                               ; preds = %60
  store ptr null, ptr %4, align 8
  store i32 1, ptr %11, align 4
  br label %83

72:                                               ; preds = %60
  br label %73

73:                                               ; preds = %72, %51
  %74 = call noalias ptr @zmalloc(i64 noundef 128) #16
  store ptr %74, ptr %8, align 8, !tbaa !64
  %75 = load ptr, ptr %8, align 8, !tbaa !64
  %76 = load ptr, ptr %5, align 8, !tbaa !13
  %77 = load ptr, ptr %6, align 8, !tbaa !69
  %78 = load ptr, ptr %9, align 8, !tbaa !69
  %79 = load i32, ptr %7, align 4, !tbaa !29
  call void @moduleInitKey(ptr noundef %75, ptr noundef %76, ptr noundef %77, ptr noundef %78, i32 noundef %79)
  %80 = load ptr, ptr %5, align 8, !tbaa !13
  %81 = load ptr, ptr %8, align 8, !tbaa !64
  call void @autoMemoryAdd(ptr noundef %80, i32 noundef 0, ptr noundef %81)
  %82 = load ptr, ptr %8, align 8, !tbaa !64
  store ptr %82, ptr %4, align 8
  store i32 1, ptr %11, align 4
  br label %83

83:                                               ; preds = %73, %71
  call void @llvm.lifetime.end.p0(i64 4, ptr %10) #15
  call void @llvm.lifetime.end.p0(i64 8, ptr %9) #15
  call void @llvm.lifetime.end.p0(i64 8, ptr %8) #15
  %84 = load ptr, ptr %4, align 8
  ret ptr %84
}