; Function Attrs: nounwind uwtable
define dso_local noundef ptr @RM_OpenKey(ptr noundef %0, ptr noundef %1, i32 noundef %2) #0 {
  %4 = lshr i32 %2, 16
  %5 = lshr i32 %2, 15
  %6 = and i32 %5, 16
  %7 = and i32 %2, 1048576
  %.not = icmp eq i32 %7, 0
  %8 = select i1 %.not, i32 0, i32 23
  %9 = and i32 %4, 39
  %10 = or disjoint i32 %9, %6
  %11 = or i32 %10, %8
  %12 = and i32 %2, 2
  %.not31 = icmp eq i32 %12, 0
  %13 = getelementptr inbounds nuw i8, ptr %0, i64 16
  %14 = load ptr, ptr %13, align 8, !tbaa !95
  %15 = getelementptr inbounds nuw i8, ptr %14, i64 32
  %16 = load ptr, ptr %15, align 8, !tbaa !117
  br i1 %.not31, label %19, label %17

17:                                               ; preds = %3
  %18 = tail call ptr @lookupKeyWriteWithFlags(ptr noundef %16, ptr noundef %1, i32 noundef %11) #35
  br label %22

19:                                               ; preds = %3
  %20 = tail call ptr @lookupKeyReadWithFlags(ptr noundef %16, ptr noundef %1, i32 noundef %11) #35
  %21 = icmp eq ptr %20, null
  br i1 %21, label %autoMemoryAdd.exit, label %22

22:                                               ; preds = %19, %17
  %.0 = phi ptr [ %18, %17 ], [ %20, %19 ]
  %23 = tail call noalias dereferenceable_or_null(128) ptr @zmalloc(i64 noundef 128) #36
  store ptr %0, ptr %23, align 8, !tbaa !101
  %24 = getelementptr inbounds nuw i8, ptr %0, i64 16
  %25 = load ptr, ptr %24, align 8, !tbaa !95
  %26 = getelementptr inbounds nuw i8, ptr %25, i64 32
  %27 = load ptr, ptr %26, align 8, !tbaa !117
  %28 = getelementptr inbounds nuw i8, ptr %23, i64 8
  store ptr %27, ptr %28, align 8, !tbaa !58
  %29 = getelementptr inbounds nuw i8, ptr %23, i64 16
  store ptr %1, ptr %29, align 8, !tbaa !59
  tail call void @incrRefCount(ptr noundef %1) #35
  %30 = getelementptr inbounds nuw i8, ptr %23, i64 24
  store ptr %.0, ptr %30, align 8, !tbaa !57
  %31 = getelementptr inbounds nuw i8, ptr %23, i64 32
  store ptr null, ptr %31, align 8, !tbaa !61
  %32 = getelementptr inbounds nuw i8, ptr %23, i64 40
  store i32 %2, ptr %32, align 8, !tbaa !55
  %.not.i = icmp eq ptr %.0, null
  br i1 %.not.i, label %moduleInitKey.exit, label %33

33:                                               ; preds = %22
  %34 = load i32, ptr %.0, align 8
  %35 = and i32 %34, 15
  switch i32 %35, label %moduleInitKey.exit [
    i32 3, label %36
    i32 6, label %.sink.split.i.i
  ]

36:                                               ; preds = %33
  %37 = getelementptr inbounds nuw i8, ptr %23, i64 48
  store i32 0, ptr %37, align 8, !tbaa !60
  %38 = getelementptr inbounds nuw i8, ptr %23, i64 112
  store ptr null, ptr %38, align 8, !tbaa !60
  br label %.sink.split.i.i

.sink.split.i.i:                                  ; preds = %36, %33
  %.sink4.i.i = phi i64 [ 120, %36 ], [ 72, %33 ]
  %.sink.i.i = phi i32 [ 1, %36 ], [ 0, %33 ]
  %39 = getelementptr inbounds nuw i8, ptr %23, i64 %.sink4.i.i
  store i32 %.sink.i.i, ptr %39, align 8, !tbaa !60
  br label %moduleInitKey.exit

moduleInitKey.exit:                               ; preds = %22, %33, %.sink.split.i.i
  %40 = getelementptr inbounds nuw i8, ptr %0, i64 48
  %41 = load i32, ptr %40, align 8, !tbaa !87
  %42 = and i32 %41, 1
  %.not.i32 = icmp eq i32 %42, 0
  br i1 %.not.i32, label %autoMemoryAdd.exit, label %43

43:                                               ; preds = %moduleInitKey.exit
  %44 = getelementptr inbounds nuw i8, ptr %0, i64 44
  %45 = load i32, ptr %44, align 4, !tbaa !96
  %46 = getelementptr inbounds nuw i8, ptr %0, i64 40
  %47 = load i32, ptr %46, align 8, !tbaa !261
  %48 = icmp eq i32 %45, %47
  br i1 %48, label %49, label %._crit_edge.i

._crit_edge.i:                                    ; preds = %43
  %.phi.trans.insert.i = getelementptr inbounds nuw i8, ptr %0, i64 32
  %.pre.i = load ptr, ptr %.phi.trans.insert.i, align 8, !tbaa !97
  br label %56

49:                                               ; preds = %43
  %50 = tail call i32 @llvm.smax.i32(i32 %45, i32 8)
  %spec.select.i = shl nuw i32 %50, 1
  store i32 %spec.select.i, ptr %46, align 8, !tbaa !261
  %51 = getelementptr inbounds nuw i8, ptr %0, i64 32
  %52 = load ptr, ptr %51, align 8, !tbaa !97
  %53 = sext i32 %spec.select.i to i64
  %54 = shl nsw i64 %53, 4
  %55 = tail call ptr @zrealloc(ptr noundef %52, i64 noundef %54) #37
  store ptr %55, ptr %51, align 8, !tbaa !97
  %.pre15.i = load i32, ptr %44, align 4, !tbaa !96
  br label %56

56:                                               ; preds = %49, %._crit_edge.i
  %57 = phi i32 [ %45, %._crit_edge.i ], [ %.pre15.i, %49 ]
  %58 = phi ptr [ %.pre.i, %._crit_edge.i ], [ %55, %49 ]
  %59 = sext i32 %57 to i64
  %60 = getelementptr inbounds %struct.AutoMemEntry, ptr %58, i64 %59, i32 1
  store i32 0, ptr %60, align 8, !tbaa !100
  %61 = getelementptr inbounds %struct.AutoMemEntry, ptr %58, i64 %59
  store ptr %23, ptr %61, align 8, !tbaa !98
  %62 = add nsw i32 %57, 1
  store i32 %62, ptr %44, align 4, !tbaa !96
  br label %autoMemoryAdd.exit

autoMemoryAdd.exit:                               ; preds = %56, %moduleInitKey.exit, %19
  %.028 = phi ptr [ null, %19 ], [ %23, %moduleInitKey.exit ], [ %23, %56 ]
  ret ptr %.028
}